; Function Attrs: mustprogress uwtable
define void @_ZN2cv6imreadERKNSt7__cxx1112basic_stringIcSt11char_traitsIcESaIcEEEi(ptr dead_on_unwind noalias writable sret(%"class.cv::Mat") align 8 %0, ptr noundef nonnull align 8 dereferenceable(32) %1, i32 noundef %2) local_unnamed_addr #4 personality ptr @__gxx_personality_v0 {
  %4 = alloca %"class.cv::utils::trace::details::Region", align 8
  %5 = alloca %"class.cv::_OutputArray", align 8
  call void @llvm.lifetime.start.p0(i64 16, ptr nonnull %4) #30
  call void @_ZN2cv5utils5trace7details6RegionC1ERKNS3_21LocationStaticStorageE(ptr noundef nonnull align 8 dereferenceable(12) %4, ptr noundef nonnull align 8 dereferenceable(32) @_ZZN2cv6imreadERKNSt7__cxx1112basic_stringIcSt11char_traitsIcESaIcEEEiE25__cv_trace_location_fn658)
  call void @_ZN2cv3MatC1Ev(ptr noundef nonnull align 8 dereferenceable(96) %0) #30
  call void @llvm.lifetime.start.p0(i64 24, ptr nonnull %5) #30
  %6 = getelementptr inbounds nuw i8, ptr %5, i64 8
  %7 = getelementptr inbounds nuw i8, ptr %5, i64 16
  store i64 0, ptr %7, align 8
  store i32 33619968, ptr %5, align 8, !tbaa !3
  store ptr %0, ptr %6, align 8, !tbaa !10
  invoke fastcc void @_ZN2cvL7imread_ERKNSt7__cxx1112basic_stringIcSt11char_traitsIcESaIcEEEiRKNS_12_OutputArrayE(ptr noundef nonnull align 8 dereferenceable(32) %1, i32 noundef %2, ptr noundef nonnull align 8 dereferenceable(24) %5)
          to label %8 unwind label %15

8:                                                ; preds = %3
  call void @llvm.lifetime.end.p0(i64 24, ptr nonnull %5) #30
  %9 = getelementptr inbounds nuw i8, ptr %4, i64 8
  %10 = load i32, ptr %9, align 8, !tbaa !11
  %.not.i = icmp eq i32 %10, 0
  br i1 %.not.i, label %_ZN2cv5utils5trace7details6RegionD2Ev.exit, label %11

11:                                               ; preds = %8
  invoke void @_ZN2cv5utils5trace7details6Region7destroyEv(ptr noundef nonnull align 8 dereferenceable(12) %4)
          to label %_ZN2cv5utils5trace7details6RegionD2Ev.exit unwind label %12

12:                                               ; preds = %11
  %13 = landingpad { ptr, i32 }
          catch ptr null
  %14 = extractvalue { ptr, i32 } %13, 0
  call void @__clang_call_terminate(ptr %14) #31
  unreachable

_ZN2cv5utils5trace7details6RegionD2Ev.exit:       ; preds = %8, %11
  call void @llvm.lifetime.end.p0(i64 16, ptr nonnull %4) #30
  ret void

15:                                               ; preds = %3
  %16 = landingpad { ptr, i32 }
          cleanup
  call void @llvm.lifetime.end.p0(i64 24, ptr nonnull %5) #30
  call void @_ZN2cv3MatD1Ev(ptr noundef nonnull align 8 dereferenceable(96) %0) #30
  call void @_ZN2cv5utils5trace7details6RegionD2Ev(ptr noundef nonnull align 8 dereferenceable(12) %4) #30
  call void @llvm.lifetime.end.p0(i64 16, ptr nonnull %4) #30
  resume { ptr, i32 } %16
}